target datalayout = "e-m:e-p270:32:32-p271:32:32-p272:64:64-i64:64-i128:128-f80:128-n8:16:32:64-S128"
target triple = "x86_64-pc-linux-gnu"

%"class.(anonymous namespace)::WalkAST" = type { ptr, ptr, ptr }
%"class.clang::ento::AnalysisManager" = type { %"class.clang::ento::BugReporterData", %"class.clang::AnalysisDeclContextManager", ptr, ptr, ptr, %"class.std::vector.137", ptr, ptr, ptr, ptr }
%"class.clang::ento::BugReporterData" = type { ptr }
%"class.clang::AnalysisDeclContextManager" = type <{ %"class.llvm::DenseMap.123", %"class.clang::LocationContextManager", %"class.clang::CFG::BuildOptions", %"class.std::unique_ptr.126", %"class.clang::BodyFarm", i8, [7 x i8] }>
%"class.llvm::DenseMap.123" = type <{ ptr, i32, i32, i32, [4 x i8] }>
%"class.clang::LocationContextManager" = type { %"class.llvm::FoldingSet", i64 }
%"class.llvm::FoldingSet" = type { %"class.llvm::FoldingSetImpl" }
%"class.llvm::FoldingSetImpl" = type { %"class.llvm::FoldingSetBase" }
%"class.llvm::FoldingSetBase" = type { ptr, i32, i32 }
%"class.clang::CFG::BuildOptions" = type { %"class.std::bitset", ptr, ptr, i8, i8, i8, i8, i8, i8, i8, i8, i8, i8, i8, i8, i8, i8, i8, i8 }
%"class.std::bitset" = type { %"struct.std::_Base_bitset" }
%"struct.std::_Base_bitset" = type { [4 x i64] }
%"class.std::unique_ptr.126" = type { %"struct.std::__uniq_ptr_data.127" }
%"struct.std::__uniq_ptr_data.127" = type { %"class.std::__uniq_ptr_impl.128" }
%"class.std::__uniq_ptr_impl.128" = type { %"class.std::tuple.129" }
%"class.std::tuple.129" = type { %"struct.std::_Tuple_impl.130" }
%"struct.std::_Tuple_impl.130" = type { %"struct.std::_Head_base.133" }
%"struct.std::_Head_base.133" = type { ptr }
%"class.clang::BodyFarm" = type { ptr, %"class.llvm::DenseMap.134", ptr }
%"class.llvm::DenseMap.134" = type <{ ptr, i32, i32, i32, [4 x i8] }>
%"class.std::vector.137" = type { %"struct.std::_Vector_base.138" }
%"struct.std::_Vector_base.138" = type { %"struct.std::_Vector_base<clang::ento::PathDiagnosticConsumer *, std::allocator<clang::ento::PathDiagnosticConsumer *>>::_Vector_impl" }
%"struct.std::_Vector_base<clang::ento::PathDiagnosticConsumer *, std::allocator<clang::ento::PathDiagnosticConsumer *>>::_Vector_impl" = type { %"struct.std::_Vector_base<clang::ento::PathDiagnosticConsumer *, std::allocator<clang::ento::PathDiagnosticConsumer *>>::_Vector_impl_data" }
%"struct.std::_Vector_base<clang::ento::PathDiagnosticConsumer *, std::allocator<clang::ento::PathDiagnosticConsumer *>>::_Vector_impl_data" = type { ptr, ptr, ptr }

; Function Attrs: mustprogress nounwind uwtable
define internal void @_ZN12_GLOBAL__N_17WalkASTC2EPKN5clang4ento11CheckerBaseERNS2_11BugReporterEPNS1_19AnalysisDeclContextE(ptr noundef nonnull align 8 dereferenceable(24) %0, ptr noundef %1, ptr noundef nonnull align 8 dereferenceable(120) %2, ptr noundef %3) unnamed_addr #0 align 2 {
  %5 = alloca ptr, align 8
  %6 = alloca ptr, align 8
  %7 = alloca ptr, align 8
  %8 = alloca ptr, align 8
  store ptr %0, ptr %5, align 8
  store ptr %1, ptr %6, align 8
  store ptr %2, ptr %7, align 8
  store ptr %3, ptr %8, align 8
  %9 = load ptr, ptr %5, align 8
  %10 = getelementptr inbounds nuw %"class.(anonymous namespace)::WalkAST", ptr %9, i32 0, i32 0
  %11 = load ptr, ptr %6, align 8
  store ptr %11, ptr %10, align 8
  %12 = getelementptr inbounds nuw %"class.(anonymous namespace)::WalkAST", ptr %9, i32 0, i32 1
  %13 = load ptr, ptr %7, align 8
  store ptr %13, ptr %12, align 8
  %14 = getelementptr inbounds nuw %"class.(anonymous namespace)::WalkAST", ptr %9, i32 0, i32 2
  %15 = load ptr, ptr %8, align 8
  store ptr %15, ptr %14, align 8
  ret void
}

; Function Attrs: mustprogress nounwind uwtable
define linkonce_odr hidden noundef ptr @_ZN5clang4ento15AnalysisManager22getAnalysisDeclContextEPKNS_4DeclE(ptr noundef nonnull align 8 dereferenceable(256) %0, ptr noundef %1) #0 comdat align 2 {
  %3 = alloca ptr, align 8
  %4 = alloca ptr, align 8
  store ptr %0, ptr %3, align 8
  store ptr %1, ptr %4, align 8
  %5 = load ptr, ptr %3, align 8
  %6 = getelementptr inbounds nuw %"class.clang::ento::AnalysisManager", ptr %5, i32 0, i32 1
  %7 = load ptr, ptr %4, align 8
  %8 = call noundef ptr @_ZN5clang26AnalysisDeclContextManager10getContextEPKNS_4DeclE(ptr noundef nonnull align 8 dereferenceable(161) %6, ptr noundef %7)
  ret ptr %8
}

; Function Attrs: mustprogress nounwind uwtable
define internal void @_ZNK12_GLOBAL__N_120CStringSyntaxChecker16checkASTCodeBodyEPKN5clang4DeclERNS1_4ento15AnalysisManagerERNS5_11BugReporterE(ptr noundef nonnull align 8 dereferenceable(32) %0, ptr noundef %1, ptr noundef nonnull align 8 dereferenceable(256) %2, ptr noundef nonnull align 8 dereferenceable(120) %3) #0 align 2 {
  %5 = alloca ptr, align 8
  %6 = alloca ptr, align 8
  %7 = alloca ptr, align 8
  %8 = alloca ptr, align 8
  %9 = alloca %"class.(anonymous namespace)::WalkAST", align 8
  store ptr %0, ptr %5, align 8
  store ptr %1, ptr %6, align 8
  store ptr %2, ptr %7, align 8
  store ptr %3, ptr %8, align 8
  %10 = load ptr, ptr %5, align 8
  %11 = load ptr, ptr %8, align 8
  %12 = load ptr, ptr %7, align 8
  %13 = load ptr, ptr %6, align 8
  %14 = call noundef ptr @_ZN5clang4ento15AnalysisManager22getAnalysisDeclContextEPKNS_4DeclE(ptr noundef nonnull align 8 dereferenceable(256) %12, ptr noundef %13)
  call void @_ZN12_GLOBAL__N_17WalkASTC2EPKN5clang4ento11CheckerBaseERNS2_11BugReporterEPNS1_19AnalysisDeclContextE(ptr noundef nonnull align 8 dereferenceable(24) %9, ptr noundef %10, ptr noundef nonnull align 8 dereferenceable(120) %11, ptr noundef %14)
  %15 = load ptr, ptr %6, align 8
  %16 = load ptr, ptr %15, align 8
  %17 = getelementptr inbounds ptr, ptr %16, i64 8
  %18 = load ptr, ptr %17, align 8
  %19 = call noundef ptr %18(ptr noundef nonnull align 8 dereferenceable(33) %15)
  call void @_ZN5clang15StmtVisitorBaseISt11add_pointerN12_GLOBAL__N_17WalkASTEvJEE5VisitEPNS_4StmtE(ptr noundef nonnull align 1 dereferenceable(1) %9, ptr noundef %19)
  ret void
}

; Function Attrs: mustprogress nounwind uwtable
define internal void @_ZN5clang4ento5check11ASTCodeBody10_checkBodyIN12_GLOBAL__N_120CStringSyntaxCheckerEEEvPvPKNS_4DeclERNS0_15AnalysisManagerERNS0_11BugReporterE(ptr noundef %0, ptr noundef %1, ptr noundef nonnull align 8 dereferenceable(256) %2, ptr noundef nonnull align 8 dereferenceable(120) %3) #0 align 2 {
  %5 = alloca ptr, align 8
  %6 = alloca ptr, align 8
  %7 = alloca ptr, align 8
  %8 = alloca ptr, align 8
  store ptr %0, ptr %5, align 8
  store ptr %1, ptr %6, align 8
  store ptr %2, ptr %7, align 8
  store ptr %3, ptr %8, align 8
  %9 = load ptr, ptr %5, align 8
  %10 = load ptr, ptr %6, align 8
  %11 = load ptr, ptr %7, align 8
  %12 = load ptr, ptr %8, align 8
  call void @_ZNK12_GLOBAL__N_120CStringSyntaxChecker16checkASTCodeBodyEPKN5clang4DeclERNS1_4ento15AnalysisManagerERNS5_11BugReporterE(ptr noundef nonnull align 8 dereferenceable(32) %9, ptr noundef %10, ptr noundef nonnull align 8 dereferenceable(256) %11, ptr noundef nonnull align 8 dereferenceable(120) %12)
  ret void
}