; Function Attrs: mustprogress nounwind uwtable
define internal void @_ZN5clang4ento5check11ASTCodeBody10_checkBodyIN12_GLOBAL__N_120CStringSyntaxCheckerEEEvPvPKNS_4DeclERNS0_15AnalysisManagerERNS0_11BugReporterE(ptr noundef %0, ptr noundef %1, ptr noundef nonnull align 8 dereferenceable(256) %2, ptr noundef nonnull align 8 dereferenceable(120) %3) #0 align 2 {
  %5 = alloca %"class.(anonymous namespace)::WalkAST", align 8
  call void @llvm.lifetime.start.p0(i64 24, ptr nonnull %5)
  %6 = getelementptr inbounds nuw i8, ptr %2, i64 8
  %7 = tail call noundef ptr @_ZN5clang26AnalysisDeclContextManager10getContextEPKNS_4DeclE(ptr noundef nonnull align 8 dereferenceable(161) %6, ptr noundef %1) #19
  store ptr %0, ptr %5, align 8
  %8 = getelementptr inbounds nuw i8, ptr %5, i64 8
  store ptr %3, ptr %8, align 8
  %9 = getelementptr inbounds nuw i8, ptr %5, i64 16
  store ptr %7, ptr %9, align 8
  %10 = load ptr, ptr %1, align 8
  %11 = getelementptr inbounds i8, ptr %10, i64 64
  %12 = load ptr, ptr %11, align 8
  %13 = tail call noundef ptr %12(ptr noundef nonnull align 8 dereferenceable(33) %1) #19
  call fastcc void @_ZN5clang15StmtVisitorBaseISt11add_pointerN12_GLOBAL__N_17WalkASTEvJEE5VisitEPNS_4StmtE(ptr noundef nonnull align 1 dereferenceable(1) %5, ptr noundef %13)
  call void @llvm.lifetime.end.p0(i64 24, ptr nonnull %5)
  ret void
}